target datalayout = "e-m:e-p270:32:32-p271:32:32-p272:64:64-i64:64-i128:128-f80:128-n8:16:32:64-S128"
target triple = "x86_64-pc-linux-gnu"

; Function Attrs: mustprogress nounwind uwtable
define hidden noundef i32 @_ZN5zxing6common11StringUtils20is_utf8_special_byteEh(i8 noundef zeroext %0) #2 align 2 {
  %2 = alloca i32, align 4
  %3 = alloca i8, align 1
  %4 = alloca i8, align 1
  %5 = alloca i32, align 4
  store i8 %0, ptr %3, align 1, !tbaa !13
  call void @llvm.lifetime.start.p0(i64 1, ptr %4) #14
  store i8 2, ptr %4, align 1, !tbaa !13
  %6 = load i8, ptr %3, align 1, !tbaa !13
  %7 = zext i8 %6 to i32
  %8 = ashr i32 %7, 6
  %9 = load i8, ptr %4, align 1, !tbaa !13
  %10 = zext i8 %9 to i32
  %11 = icmp eq i32 %8, %10
  br i1 %11, label %12, label %13

12:                                               ; preds = %1
  store i32 1, ptr %2, align 4
  store i32 1, ptr %5, align 4
  br label %14

13:                                               ; preds = %1
  store i32 0, ptr %2, align 4
  store i32 1, ptr %5, align 4
  br label %14

14:                                               ; preds = %13, %12
  call void @llvm.lifetime.end.p0(i64 1, ptr %4) #14
  %15 = load i32, ptr %2, align 4
  ret i32 %15
}

; Function Attrs: mustprogress nounwind uwtable
define hidden noundef i32 @_ZN5zxing6common11StringUtils12is_utf8_codeEPci(ptr noundef %0, i32 noundef %1) #2 align 2 {
  %3 = alloca i32, align 4
  %4 = alloca ptr, align 8
  %5 = alloca i32, align 4
  %6 = alloca i8, align 1
  %7 = alloca i8, align 1
  %8 = alloca i8, align 1
  %9 = alloca i8, align 1
  %10 = alloca i8, align 1
  %11 = alloca i8, align 1
  %12 = alloca i32, align 4
  %13 = alloca i32, align 4
  %14 = alloca i8, align 1
  %15 = alloca i8, align 1
  %16 = alloca i8, align 1
  %17 = alloca i8, align 1
  %18 = alloca i8, align 1
  %19 = alloca i8, align 1
  %20 = alloca i32, align 4
  %21 = alloca i32, align 4
  %22 = alloca i32, align 4
  store ptr %0, ptr %4, align 8, !tbaa !3
  store i32 %1, ptr %5, align 4, !tbaa !8
  call void @llvm.lifetime.start.p0(i64 1, ptr %6) #14
  store i8 0, ptr %6, align 1, !tbaa !13
  call void @llvm.lifetime.start.p0(i64 1, ptr %7) #14
  store i8 6, ptr %7, align 1, !tbaa !13
  call void @llvm.lifetime.start.p0(i64 1, ptr %8) #14
  store i8 14, ptr %8, align 1, !tbaa !13
  call void @llvm.lifetime.start.p0(i64 1, ptr %9) #14
  store i8 30, ptr %9, align 1, !tbaa !13
  call void @llvm.lifetime.start.p0(i64 1, ptr %10) #14
  store i8 62, ptr %10, align 1, !tbaa !13
  call void @llvm.lifetime.start.p0(i64 1, ptr %11) #14
  store i8 126, ptr %11, align 1, !tbaa !13
  call void @llvm.lifetime.start.p0(i64 4, ptr %12) #14
  store i32 0, ptr %12, align 4, !tbaa !8
  call void @llvm.lifetime.start.p0(i64 4, ptr %13) #14
  store i32 0, ptr %13, align 4, !tbaa !8
  call void @llvm.lifetime.start.p0(i64 1, ptr %14) #14
  store i8 0, ptr %14, align 1, !tbaa !13
  call void @llvm.lifetime.start.p0(i64 1, ptr %15) #14
  store i8 0, ptr %15, align 1, !tbaa !13
  call void @llvm.lifetime.start.p0(i64 1, ptr %16) #14
  store i8 0, ptr %16, align 1, !tbaa !13
  call void @llvm.lifetime.start.p0(i64 1, ptr %17) #14
  store i8 0, ptr %17, align 1, !tbaa !13
  call void @llvm.lifetime.start.p0(i64 1, ptr %18) #14
  store i8 0, ptr %18, align 1, !tbaa !13
  call void @llvm.lifetime.start.p0(i64 1, ptr %19) #14
  store i8 0, ptr %19, align 1, !tbaa !13
  call void @llvm.lifetime.start.p0(i64 4, ptr %20) #14
  store i32 0, ptr %20, align 4, !tbaa !8
  br label %23

23:                                               ; preds = %263, %252, %189, %136, %93, %60, %40, %2
  %24 = load i32, ptr %20, align 4, !tbaa !8
  %25 = load i32, ptr %5, align 4, !tbaa !8
  %26 = icmp slt i32 %24, %25
  br i1 %26, label %28, label %27

27:                                               ; preds = %23
  call void @llvm.lifetime.end.p0(i64 4, ptr %20) #14
  br label %268

28:                                               ; preds = %23
  %29 = load ptr, ptr %4, align 8, !tbaa !3
  %30 = load i32, ptr %20, align 4, !tbaa !8
  %31 = sext i32 %30 to i64
  %32 = getelementptr inbounds i8, ptr %29, i64 %31
  %33 = load i8, ptr %32, align 1, !tbaa !13
  store i8 %33, ptr %19, align 1, !tbaa !13
  %34 = load i8, ptr %19, align 1, !tbaa !13
  %35 = zext i8 %34 to i32
  %36 = ashr i32 %35, 7
  %37 = load i8, ptr %6, align 1, !tbaa !13
  %38 = zext i8 %37 to i32
  %39 = icmp eq i32 %36, %38
  br i1 %39, label %40, label %43

40:                                               ; preds = %28
  %41 = load i32, ptr %20, align 4, !tbaa !8
  %42 = add nsw i32 %41, 1
  store i32 %42, ptr %20, align 4, !tbaa !8
  br label %23, !llvm.loop !35

43:                                               ; preds = %28
  %44 = load i8, ptr %19, align 1, !tbaa !13
  %45 = zext i8 %44 to i32
  %46 = ashr i32 %45, 5
  %47 = load i8, ptr %7, align 1, !tbaa !13
  %48 = zext i8 %47 to i32
  %49 = icmp eq i32 %46, %48
  br i1 %49, label %50, label %66

50:                                               ; preds = %43
  %51 = load ptr, ptr %4, align 8, !tbaa !3
  %52 = load i32, ptr %20, align 4, !tbaa !8
  %53 = add nsw i32 %52, 1
  %54 = sext i32 %53 to i64
  %55 = getelementptr inbounds i8, ptr %51, i64 %54
  %56 = load i8, ptr %55, align 1, !tbaa !13
  store i8 %56, ptr %14, align 1, !tbaa !13
  %57 = load i8, ptr %14, align 1, !tbaa !13
  %58 = call noundef i32 @_ZN5zxing6common11StringUtils20is_utf8_special_byteEh(i8 noundef zeroext %57)
  %59 = icmp ne i32 %58, 0
  br i1 %59, label %60, label %65

60:                                               ; preds = %50
  %61 = load i32, ptr %12, align 4, !tbaa !8
  %62 = add nsw i32 %61, 1
  store i32 %62, ptr %12, align 4, !tbaa !8
  %63 = load i32, ptr %20, align 4, !tbaa !8
  %64 = add nsw i32 %63, 2
  store i32 %64, ptr %20, align 4, !tbaa !8
  br label %23, !llvm.loop !35

65:                                               ; preds = %50
  br label %262

66:                                               ; preds = %43
  %67 = load i8, ptr %19, align 1, !tbaa !13
  %68 = zext i8 %67 to i32
  %69 = ashr i32 %68, 4
  %70 = load i8, ptr %8, align 1, !tbaa !13
  %71 = zext i8 %70 to i32
  %72 = icmp eq i32 %69, %71
  br i1 %72, label %73, label %99

73:                                               ; preds = %66
  %74 = load ptr, ptr %4, align 8, !tbaa !3
  %75 = load i32, ptr %20, align 4, !tbaa !8
  %76 = add nsw i32 %75, 1
  %77 = sext i32 %76 to i64
  %78 = getelementptr inbounds i8, ptr %74, i64 %77
  %79 = load i8, ptr %78, align 1, !tbaa !13
  store i8 %79, ptr %15, align 1, !tbaa !13
  %80 = load ptr, ptr %4, align 8, !tbaa !3
  %81 = load i32, ptr %20, align 4, !tbaa !8
  %82 = add nsw i32 %81, 2
  %83 = sext i32 %82 to i64
  %84 = getelementptr inbounds i8, ptr %80, i64 %83
  %85 = load i8, ptr %84, align 1, !tbaa !13
  store i8 %85, ptr %16, align 1, !tbaa !13
  %86 = load i8, ptr %15, align 1, !tbaa !13
  %87 = call noundef i32 @_ZN5zxing6common11StringUtils20is_utf8_special_byteEh(i8 noundef zeroext %86)
  %88 = icmp ne i32 %87, 0
  br i1 %88, label %89, label %98

89:                                               ; preds = %73
  %90 = load i8, ptr %16, align 1, !tbaa !13
  %91 = call noundef i32 @_ZN5zxing6common11StringUtils20is_utf8_special_byteEh(i8 noundef zeroext %90)
  %92 = icmp ne i32 %91, 0
  br i1 %92, label %93, label %98

93:                                               ; preds = %89
  %94 = load i32, ptr %12, align 4, !tbaa !8
  %95 = add nsw i32 %94, 1
  store i32 %95, ptr %12, align 4, !tbaa !8
  %96 = load i32, ptr %20, align 4, !tbaa !8
  %97 = add nsw i32 %96, 3
  store i32 %97, ptr %20, align 4, !tbaa !8
  br label %23, !llvm.loop !35

98:                                               ; preds = %89, %73
  br label %261

99:                                               ; preds = %66
  %100 = load i8, ptr %19, align 1, !tbaa !13
  %101 = zext i8 %100 to i32
  %102 = ashr i32 %101, 3
  %103 = load i8, ptr %9, align 1, !tbaa !13
  %104 = zext i8 %103 to i32
  %105 = icmp eq i32 %102, %104
  br i1 %105, label %106, label %142

106:                                              ; preds = %99
  %107 = load ptr, ptr %4, align 8, !tbaa !3
  %108 = load i32, ptr %20, align 4, !tbaa !8
  %109 = add nsw i32 %108, 1
  %110 = sext i32 %109 to i64
  %111 = getelementptr inbounds i8, ptr %107, i64 %110
  %112 = load i8, ptr %111, align 1, !tbaa !13
  store i8 %112, ptr %14, align 1, !tbaa !13
  %113 = load ptr, ptr %4, align 8, !tbaa !3
  %114 = load i32, ptr %20, align 4, !tbaa !8
  %115 = add nsw i32 %114, 2
  %116 = sext i32 %115 to i64
  %117 = getelementptr inbounds i8, ptr %113, i64 %116
  %118 = load i8, ptr %117, align 1, !tbaa !13
  store i8 %118, ptr %15, align 1, !tbaa !13
  %119 = load ptr, ptr %4, align 8, !tbaa !3
  %120 = load i32, ptr %20, align 4, !tbaa !8
  %121 = add nsw i32 %120, 3
  %122 = sext i32 %121 to i64
  %123 = getelementptr inbounds i8, ptr %119, i64 %122
  %124 = load i8, ptr %123, align 1, !tbaa !13
  store i8 %124, ptr %16, align 1, !tbaa !13
  %125 = load i8, ptr %14, align 1, !tbaa !13
  %126 = call noundef i32 @_ZN5zxing6common11StringUtils20is_utf8_special_byteEh(i8 noundef zeroext %125)
  %127 = icmp ne i32 %126, 0
  br i1 %127, label %128, label %141

128:                                              ; preds = %106
  %129 = load i8, ptr %15, align 1, !tbaa !13
  %130 = call noundef i32 @_ZN5zxing6common11StringUtils20is_utf8_special_byteEh(i8 noundef zeroext %129)
  %131 = icmp ne i32 %130, 0
  br i1 %131, label %132, label %141

132:                                              ; preds = %128
  %133 = load i8, ptr %16, align 1, !tbaa !13
  %134 = call noundef i32 @_ZN5zxing6common11StringUtils20is_utf8_special_byteEh(i8 noundef zeroext %133)
  %135 = icmp ne i32 %134, 0
  br i1 %135, label %136, label %141

136:                                              ; preds = %132
  %137 = load i32, ptr %12, align 4, !tbaa !8
  %138 = add nsw i32 %137, 1
  store i32 %138, ptr %12, align 4, !tbaa !8
  %139 = load i32, ptr %20, align 4, !tbaa !8
  %140 = add nsw i32 %139, 4
  store i32 %140, ptr %20, align 4, !tbaa !8
  br label %23, !llvm.loop !35

141:                                              ; preds = %132, %128, %106
  br label %260

142:                                              ; preds = %99
  %143 = load i8, ptr %19, align 1, !tbaa !13
  %144 = zext i8 %143 to i32
  %145 = ashr i32 %144, 2
  %146 = load i8, ptr %10, align 1, !tbaa !13
  %147 = zext i8 %146 to i32
  %148 = icmp eq i32 %145, %147
  br i1 %148, label %149, label %195

149:                                              ; preds = %142
  %150 = load ptr, ptr %4, align 8, !tbaa !3
  %151 = load i32, ptr %20, align 4, !tbaa !8
  %152 = add nsw i32 %151, 1
  %153 = sext i32 %152 to i64
  %154 = getelementptr inbounds i8, ptr %150, i64 %153
  %155 = load i8, ptr %154, align 1, !tbaa !13
  store i8 %155, ptr %14, align 1, !tbaa !13
  %156 = load ptr, ptr %4, align 8, !tbaa !3
  %157 = load i32, ptr %20, align 4, !tbaa !8
  %158 = add nsw i32 %157, 2
  %159 = sext i32 %158 to i64
  %160 = getelementptr inbounds i8, ptr %156, i64 %159
  %161 = load i8, ptr %160, align 1, !tbaa !13
  store i8 %161, ptr %15, align 1, !tbaa !13
  %162 = load ptr, ptr %4, align 8, !tbaa !3
  %163 = load i32, ptr %20, align 4, !tbaa !8
  %164 = add nsw i32 %163, 3
  %165 = sext i32 %164 to i64
  %166 = getelementptr inbounds i8, ptr %162, i64 %165
  %167 = load i8, ptr %166, align 1, !tbaa !13
  store i8 %167, ptr %16, align 1, !tbaa !13
  %168 = load ptr, ptr %4, align 8, !tbaa !3
  %169 = load i32, ptr %20, align 4, !tbaa !8
  %170 = add nsw i32 %169, 4
  %171 = sext i32 %170 to i64
  %172 = getelementptr inbounds i8, ptr %168, i64 %171
  %173 = load i8, ptr %172, align 1, !tbaa !13
  store i8 %173, ptr %17, align 1, !tbaa !13
  %174 = load i8, ptr %14, align 1, !tbaa !13
  %175 = call noundef i32 @_ZN5zxing6common11StringUtils20is_utf8_special_byteEh(i8 noundef zeroext %174)
  %176 = icmp ne i32 %175, 0
  br i1 %176, label %177, label %194

177:                                              ; preds = %149
  %178 = load i8, ptr %15, align 1, !tbaa !13
  %179 = call noundef i32 @_ZN5zxing6common11StringUtils20is_utf8_special_byteEh(i8 noundef zeroext %178)
  %180 = icmp ne i32 %179, 0
  br i1 %180, label %181, label %194

181:                                              ; preds = %177
  %182 = load i8, ptr %16, align 1, !tbaa !13
  %183 = call noundef i32 @_ZN5zxing6common11StringUtils20is_utf8_special_byteEh(i8 noundef zeroext %182)
  %184 = icmp ne i32 %183, 0
  br i1 %184, label %185, label %194

185:                                              ; preds = %181
  %186 = load i8, ptr %17, align 1, !tbaa !13
  %187 = call noundef i32 @_ZN5zxing6common11StringUtils20is_utf8_special_byteEh(i8 noundef zeroext %186)
  %188 = icmp ne i32 %187, 0
  br i1 %188, label %189, label %194

189:                                              ; preds = %185
  %190 = load i32, ptr %12, align 4, !tbaa !8
  %191 = add nsw i32 %190, 1
  store i32 %191, ptr %12, align 4, !tbaa !8
  %192 = load i32, ptr %20, align 4, !tbaa !8
  %193 = add nsw i32 %192, 5
  store i32 %193, ptr %20, align 4, !tbaa !8
  br label %23, !llvm.loop !35

194:                                              ; preds = %185, %181, %177, %149
  br label %259

195:                                              ; preds = %142
  %196 = load i8, ptr %19, align 1, !tbaa !13
  %197 = zext i8 %196 to i32
  %198 = ashr i32 %197, 1
  %199 = load i8, ptr %11, align 1, !tbaa !13
  %200 = zext i8 %199 to i32
  %201 = icmp eq i32 %198, %200
  br i1 %201, label %202, label %258

202:                                              ; preds = %195
  %203 = load ptr, ptr %4, align 8, !tbaa !3
  %204 = load i32, ptr %20, align 4, !tbaa !8
  %205 = add nsw i32 %204, 1
  %206 = sext i32 %205 to i64
  %207 = getelementptr inbounds i8, ptr %203, i64 %206
  %208 = load i8, ptr %207, align 1, !tbaa !13
  store i8 %208, ptr %14, align 1, !tbaa !13
  %209 = load ptr, ptr %4, align 8, !tbaa !3
  %210 = load i32, ptr %20, align 4, !tbaa !8
  %211 = add nsw i32 %210, 2
  %212 = sext i32 %211 to i64
  %213 = getelementptr inbounds i8, ptr %209, i64 %212
  %214 = load i8, ptr %213, align 1, !tbaa !13
  store i8 %214, ptr %15, align 1, !tbaa !13
  %215 = load ptr, ptr %4, align 8, !tbaa !3
  %216 = load i32, ptr %20, align 4, !tbaa !8
  %217 = add nsw i32 %216, 3
  %218 = sext i32 %217 to i64
  %219 = getelementptr inbounds i8, ptr %215, i64 %218
  %220 = load i8, ptr %219, align 1, !tbaa !13
  store i8 %220, ptr %16, align 1, !tbaa !13
  %221 = load ptr, ptr %4, align 8, !tbaa !3
  %222 = load i32, ptr %20, align 4, !tbaa !8
  %223 = add nsw i32 %222, 4
  %224 = sext i32 %223 to i64
  %225 = getelementptr inbounds i8, ptr %221, i64 %224
  %226 = load i8, ptr %225, align 1, !tbaa !13
  store i8 %226, ptr %17, align 1, !tbaa !13
  %227 = load ptr, ptr %4, align 8, !tbaa !3
  %228 = load i32, ptr %20, align 4, !tbaa !8
  %229 = add nsw i32 %228, 5
  %230 = sext i32 %229 to i64
  %231 = getelementptr inbounds i8, ptr %227, i64 %230
  %232 = load i8, ptr %231, align 1, !tbaa !13
  store i8 %232, ptr %18, align 1, !tbaa !13
  %233 = load i8, ptr %14, align 1, !tbaa !13
  %234 = call noundef i32 @_ZN5zxing6common11StringUtils20is_utf8_special_byteEh(i8 noundef zeroext %233)
  %235 = icmp ne i32 %234, 0
  br i1 %235, label %236, label %257

236:                                              ; preds = %202
  %237 = load i8, ptr %15, align 1, !tbaa !13
  %238 = call noundef i32 @_ZN5zxing6common11StringUtils20is_utf8_special_byteEh(i8 noundef zeroext %237)
  %239 = icmp ne i32 %238, 0
  br i1 %239, label %240, label %257

240:                                              ; preds = %236
  %241 = load i8, ptr %16, align 1, !tbaa !13
  %242 = call noundef i32 @_ZN5zxing6common11StringUtils20is_utf8_special_byteEh(i8 noundef zeroext %241)
  %243 = icmp ne i32 %242, 0
  br i1 %243, label %244, label %257

244:                                              ; preds = %240
  %245 = load i8, ptr %17, align 1, !tbaa !13
  %246 = call noundef i32 @_ZN5zxing6common11StringUtils20is_utf8_special_byteEh(i8 noundef zeroext %245)
  %247 = icmp ne i32 %246, 0
  br i1 %247, label %248, label %257

248:                                              ; preds = %244
  %249 = load i8, ptr %18, align 1, !tbaa !13
  %250 = call noundef i32 @_ZN5zxing6common11StringUtils20is_utf8_special_byteEh(i8 noundef zeroext %249)
  %251 = icmp ne i32 %250, 0
  br i1 %251, label %252, label %257

252:                                              ; preds = %248
  %253 = load i32, ptr %12, align 4, !tbaa !8
  %254 = add nsw i32 %253, 1
  store i32 %254, ptr %12, align 4, !tbaa !8
  %255 = load i32, ptr %20, align 4, !tbaa !8
  %256 = add nsw i32 %255, 6
  store i32 %256, ptr %20, align 4, !tbaa !8
  br label %23, !llvm.loop !35

257:                                              ; preds = %248, %244, %240, %236, %202
  br label %258

258:                                              ; preds = %257, %195
  br label %259

259:                                              ; preds = %258, %194
  br label %260

260:                                              ; preds = %259, %141
  br label %261

261:                                              ; preds = %260, %98
  br label %262

262:                                              ; preds = %261, %65
  br label %263

263:                                              ; preds = %262
  %264 = load i32, ptr %13, align 4, !tbaa !8
  %265 = add nsw i32 %264, 1
  store i32 %265, ptr %13, align 4, !tbaa !8
  %266 = load i32, ptr %20, align 4, !tbaa !8
  %267 = add nsw i32 %266, 1
  store i32 %267, ptr %20, align 4, !tbaa !8
  br label %23, !llvm.loop !35

268:                                              ; preds = %27
  %269 = load i32, ptr %12, align 4, !tbaa !8
  %270 = load i32, ptr %13, align 4, !tbaa !8
  %271 = add nsw i32 %269, %270
  %272 = icmp ne i32 %271, 0
  br i1 %272, label %273, label %285

273:                                              ; preds = %268
  call void @llvm.lifetime.start.p0(i64 4, ptr %21) #14
  %274 = load i32, ptr %12, align 4, !tbaa !8
  %275 = mul nsw i32 100, %274
  %276 = load i32, ptr %12, align 4, !tbaa !8
  %277 = load i32, ptr %13, align 4, !tbaa !8
  %278 = add nsw i32 %276, %277
  %279 = sdiv i32 %275, %278
  store i32 %279, ptr %21, align 4, !tbaa !8
  %280 = load i32, ptr %21, align 4, !tbaa !8
  %281 = icmp sgt i32 %280, 90
  br i1 %281, label %282, label %283

282:                                              ; preds = %273
  store i32 1, ptr %3, align 4
  store i32 1, ptr %22, align 4
  br label %284

283:                                              ; preds = %273
  store i32 0, ptr %3, align 4
  store i32 1, ptr %22, align 4
  br label %284

284:                                              ; preds = %283, %282
  call void @llvm.lifetime.end.p0(i64 4, ptr %21) #14
  br label %286

285:                                              ; preds = %268
  store i32 0, ptr %3, align 4
  store i32 1, ptr %22, align 4
  br label %286

286:                                              ; preds = %285, %284
  call void @llvm.lifetime.end.p0(i64 1, ptr %19) #14
  call void @llvm.lifetime.end.p0(i64 1, ptr %18) #14
  call void @llvm.lifetime.end.p0(i64 1, ptr %17) #14
  call void @llvm.lifetime.end.p0(i64 1, ptr %16) #14
  call void @llvm.lifetime.end.p0(i64 1, ptr %15) #14
  call void @llvm.lifetime.end.p0(i64 1, ptr %14) #14
  call void @llvm.lifetime.end.p0(i64 4, ptr %13) #14
  call void @llvm.lifetime.end.p0(i64 4, ptr %12) #14
  call void @llvm.lifetime.end.p0(i64 1, ptr %11) #14
  call void @llvm.lifetime.end.p0(i64 1, ptr %10) #14
  call void @llvm.lifetime.end.p0(i64 1, ptr %9) #14
  call void @llvm.lifetime.end.p0(i64 1, ptr %8) #14
  call void @llvm.lifetime.end.p0(i64 1, ptr %7) #14
  call void @llvm.lifetime.end.p0(i64 1, ptr %6) #14
  %287 = load i32, ptr %3, align 4
  ret i32 %287
}