; Function Attrs: mustprogress nofree norecurse nosync nounwind willreturn memory(argmem: read) uwtable
define hidden noundef range(i32 0, 2) i32 @_ZN5zxing6common11StringUtils12is_utf8_codeEPci(ptr noundef readonly captures(none) %0, i32 noundef %1) local_unnamed_addr #6 align 2 {
  %3 = icmp sgt i32 %1, 0
  br i1 %3, label %.lr.ph.lr.ph.preheader, label %.outer122._crit_edge

.lr.ph.lr.ph.preheader:                           ; preds = %2
  %4 = zext nneg i32 %1 to i64
  br label %.lr.ph.lr.ph

.lr.ph.lr.ph:                                     ; preds = %.lr.ph.lr.ph.preheader, %.outer.backedge
  %.080.ph150 = phi i32 [ %22, %.outer.backedge ], [ 0, %.lr.ph.lr.ph.preheader ]
  %.081.ph149 = phi i32 [ %.081.ph123142, %.outer.backedge ], [ 0, %.lr.ph.lr.ph.preheader ]
  %.082.ph148 = phi i32 [ %.082.ph.be, %.outer.backedge ], [ 0, %.lr.ph.lr.ph.preheader ]
  br label %.lr.ph

.lr.ph:                                           ; preds = %.lr.ph.lr.ph, %.outer122
  %.080.ph124143 = phi i32 [ %.080.ph150, %.lr.ph.lr.ph ], [ %83, %.outer122 ]
  %.081.ph123142 = phi i32 [ %.081.ph149, %.lr.ph.lr.ph ], [ %82, %.outer122 ]
  %5 = sext i32 %.080.ph124143 to i64
  br label %7

.outer122._crit_edge:                             ; preds = %.outer.backedge, %.outer122, %11, %2
  %.082.ph.lcssa = phi i32 [ 0, %2 ], [ %.082.ph148, %11 ], [ %.082.ph148, %.outer122 ], [ %.082.ph.be, %.outer.backedge ]
  %.081.ph123.lcssa135 = phi i32 [ 0, %2 ], [ %.081.ph123142, %11 ], [ %82, %.outer122 ], [ %.081.ph123142, %.outer.backedge ]
  %6 = add nsw i32 %.081.ph123.lcssa135, %.082.ph.lcssa
  %.not = icmp eq i32 %6, 0
  br i1 %.not, label %89, label %85

7:                                                ; preds = %.lr.ph, %11
  %indvars.iv = phi i64 [ %5, %.lr.ph ], [ %indvars.iv.next, %11 ]
  %8 = getelementptr inbounds i8, ptr %0, i64 %indvars.iv
  %9 = load i8, ptr %8, align 1, !tbaa !12
  %10 = icmp sgt i8 %9, -1
  br i1 %10, label %11, label %13

11:                                               ; preds = %7
  %indvars.iv.next = add nsw i64 %indvars.iv, 1
  %12 = icmp slt i64 %indvars.iv.next, %4
  br i1 %12, label %7, label %.outer122._crit_edge, !llvm.loop !22

13:                                               ; preds = %7
  %14 = getelementptr inbounds i8, ptr %0, i64 %indvars.iv
  %15 = trunc nsw i64 %indvars.iv to i32
  %16 = zext i8 %9 to i32
  %.mask = and i32 %16, 224
  %17 = icmp eq i32 %.mask, 192
  br i1 %17, label %18, label %24

18:                                               ; preds = %13
  %19 = getelementptr i8, ptr %14, i64 1
  %20 = load i8, ptr %19, align 1, !tbaa !12
  %21 = icmp sgt i8 %20, -65
  br i1 %21, label %.outer122, label %.outer.backedge

.outer.backedge:                                  ; preds = %18, %69, %53, %40, %30
  %.sink = phi i32 [ 3, %30 ], [ 4, %40 ], [ 5, %53 ], [ 6, %69 ], [ 2, %18 ]
  %22 = add nsw i32 %.sink, %15
  %.082.ph.be = add nuw nsw i32 %.082.ph148, 1
  %23 = icmp slt i32 %22, %1
  br i1 %23, label %.lr.ph.lr.ph, label %.outer122._crit_edge, !llvm.loop !22

24:                                               ; preds = %13
  %.mask84 = and i32 %16, 240
  %25 = icmp eq i32 %.mask84, 224
  br i1 %25, label %26, label %34

26:                                               ; preds = %24
  %27 = getelementptr i8, ptr %14, i64 1
  %28 = load i8, ptr %27, align 1, !tbaa !12
  %29 = icmp sgt i8 %28, -65
  br i1 %29, label %.outer122, label %30

30:                                               ; preds = %26
  %31 = getelementptr i8, ptr %14, i64 2
  %32 = load i8, ptr %31, align 1, !tbaa !12
  %33 = icmp sgt i8 %32, -65
  br i1 %33, label %.outer122, label %.outer.backedge

34:                                               ; preds = %24
  %.mask85 = and i32 %16, 248
  %35 = icmp eq i32 %.mask85, 240
  br i1 %35, label %36, label %47

36:                                               ; preds = %34
  %37 = getelementptr i8, ptr %14, i64 1
  %38 = load i8, ptr %37, align 1, !tbaa !12
  %39 = icmp sgt i8 %38, -65
  br i1 %39, label %.outer122, label %40

40:                                               ; preds = %36
  %41 = getelementptr i8, ptr %14, i64 3
  %42 = load i8, ptr %41, align 1, !tbaa !12
  %43 = getelementptr i8, ptr %14, i64 2
  %44 = load i8, ptr %43, align 1, !tbaa !12
  %45 = icmp sgt i8 %44, -65
  %46 = icmp sgt i8 %42, -65
  %or.cond = select i1 %45, i1 true, i1 %46
  br i1 %or.cond, label %.outer122, label %.outer.backedge

47:                                               ; preds = %34
  %.mask86 = and i32 %16, 252
  %48 = icmp eq i32 %.mask86, 248
  br i1 %48, label %49, label %63

49:                                               ; preds = %47
  %50 = getelementptr i8, ptr %14, i64 1
  %51 = load i8, ptr %50, align 1, !tbaa !12
  %52 = icmp sgt i8 %51, -65
  br i1 %52, label %.outer122, label %53

53:                                               ; preds = %49
  %54 = getelementptr i8, ptr %14, i64 4
  %55 = load i8, ptr %54, align 1, !tbaa !12
  %56 = getelementptr i8, ptr %14, i64 3
  %57 = load i8, ptr %56, align 1, !tbaa !12
  %58 = getelementptr i8, ptr %14, i64 2
  %59 = load i8, ptr %58, align 1, !tbaa !12
  %60 = icmp sgt i8 %59, -65
  %61 = icmp sgt i8 %57, -65
  %or.cond117 = select i1 %60, i1 true, i1 %61
  %62 = icmp sgt i8 %55, -65
  %or.cond118 = select i1 %or.cond117, i1 true, i1 %62
  br i1 %or.cond118, label %.outer122, label %.outer.backedge

63:                                               ; preds = %47
  %.mask87 = and i32 %16, 254
  %64 = icmp eq i32 %.mask87, 252
  br i1 %64, label %65, label %.outer122

65:                                               ; preds = %63
  %66 = getelementptr i8, ptr %14, i64 1
  %67 = load i8, ptr %66, align 1, !tbaa !12
  %68 = icmp sgt i8 %67, -65
  br i1 %68, label %.outer122, label %69

69:                                               ; preds = %65
  %70 = getelementptr i8, ptr %14, i64 5
  %71 = load i8, ptr %70, align 1, !tbaa !12
  %72 = getelementptr i8, ptr %14, i64 4
  %73 = load i8, ptr %72, align 1, !tbaa !12
  %74 = getelementptr i8, ptr %14, i64 3
  %75 = load i8, ptr %74, align 1, !tbaa !12
  %76 = getelementptr i8, ptr %14, i64 2
  %77 = load i8, ptr %76, align 1, !tbaa !12
  %78 = icmp sgt i8 %77, -65
  %79 = icmp sgt i8 %75, -65
  %or.cond119 = select i1 %78, i1 true, i1 %79
  %80 = icmp sgt i8 %73, -65
  %or.cond120 = select i1 %or.cond119, i1 true, i1 %80
  %81 = icmp sgt i8 %71, -65
  %or.cond121 = select i1 %or.cond120, i1 true, i1 %81
  br i1 %or.cond121, label %.outer122, label %.outer.backedge

.outer122:                                        ; preds = %18, %40, %36, %63, %69, %65, %49, %53, %26, %30
  %82 = add nsw i32 %.081.ph123142, 1
  %83 = add nsw i32 %15, 1
  %84 = icmp slt i32 %83, %1
  br i1 %84, label %.lr.ph, label %.outer122._crit_edge, !llvm.loop !22

85:                                               ; preds = %.outer122._crit_edge
  %86 = mul nsw i32 %.082.ph.lcssa, 100
  %87 = sdiv i32 %86, %6
  %88 = icmp sgt i32 %87, 90
  %. = zext i1 %88 to i32
  br label %89

89:                                               ; preds = %.outer122._crit_edge, %85
  %.1 = phi i32 [ %., %85 ], [ 0, %.outer122._crit_edge ]
  ret i32 %.1
}